; Function Attrs: mustprogress nofree norecurse nosync nounwind willreturn memory(argmem: readwrite) uwtable
define hidden noundef i32 @_pcre2_is_newline_8(ptr noundef readonly %0, i32 noundef %1, ptr noundef readnone %2, ptr nocapture noundef writeonly %3, i32 noundef %4) local_unnamed_addr #0 {
  %.not = icmp ne i32 %4, 0
  %6 = load i8, ptr %0, align 1
  %7 = zext i8 %6 to i32
  %8 = icmp ugt i8 %6, -65
  %or.cond = select i1 %.not, i1 %8, i1 false
  br i1 %or.cond, label %9, label %93

9:                                                ; preds = %5
  %10 = and i32 %7, 32
  %11 = icmp eq i32 %10, 0
  %12 = getelementptr inbounds i8, ptr %0, i64 1
  %13 = load i8, ptr %12, align 1
  %14 = and i8 %13, 63
  %15 = zext nneg i8 %14 to i32
  br i1 %11, label %16, label %20

16:                                               ; preds = %9
  %17 = shl nuw nsw i32 %7, 6
  %18 = and i32 %17, 1984
  %19 = or disjoint i32 %18, %15
  br label %93

20:                                               ; preds = %9
  %21 = and i32 %7, 16
  %22 = icmp eq i32 %21, 0
  br i1 %22, label %23, label %33

23:                                               ; preds = %20
  %24 = shl nuw nsw i32 %7, 12
  %25 = and i32 %24, 61440
  %26 = shl nuw nsw i32 %15, 6
  %27 = or disjoint i32 %26, %25
  %28 = getelementptr inbounds i8, ptr %0, i64 2
  %29 = load i8, ptr %28, align 1
  %30 = and i8 %29, 63
  %31 = zext nneg i8 %30 to i32
  %32 = or disjoint i32 %27, %31
  br label %93

33:                                               ; preds = %20
  %34 = and i32 %7, 8
  %35 = icmp eq i32 %34, 0
  br i1 %35, label %36, label %52

36:                                               ; preds = %33
  %37 = shl nuw nsw i32 %7, 18
  %38 = and i32 %37, 1835008
  %39 = shl nuw nsw i32 %15, 12
  %40 = or disjoint i32 %39, %38
  %41 = getelementptr inbounds i8, ptr %0, i64 2
  %42 = load i8, ptr %41, align 1
  %43 = and i8 %42, 63
  %44 = zext nneg i8 %43 to i32
  %45 = shl nuw nsw i32 %44, 6
  %46 = or disjoint i32 %40, %45
  %47 = getelementptr inbounds i8, ptr %0, i64 3
  %48 = load i8, ptr %47, align 1
  %49 = and i8 %48, 63
  %50 = zext nneg i8 %49 to i32
  %51 = or disjoint i32 %46, %50
  br label %93

52:                                               ; preds = %33
  %53 = and i32 %7, 4
  %54 = icmp eq i32 %53, 0
  %55 = getelementptr inbounds i8, ptr %0, i64 2
  %56 = load i8, ptr %55, align 1
  %57 = and i8 %56, 63
  %58 = zext nneg i8 %57 to i32
  %59 = getelementptr inbounds i8, ptr %0, i64 3
  %60 = load i8, ptr %59, align 1
  %61 = and i8 %60, 63
  %62 = zext nneg i8 %61 to i32
  %63 = getelementptr inbounds i8, ptr %0, i64 4
  %64 = load i8, ptr %63, align 1
  %65 = and i8 %64, 63
  %66 = zext nneg i8 %65 to i32
  br i1 %54, label %67, label %77

67:                                               ; preds = %52
  %68 = shl nuw i32 %7, 24
  %69 = and i32 %68, 50331648
  %70 = shl nuw nsw i32 %15, 18
  %71 = or disjoint i32 %70, %69
  %72 = shl nuw nsw i32 %58, 12
  %73 = or disjoint i32 %71, %72
  %74 = shl nuw nsw i32 %62, 6
  %75 = or disjoint i32 %73, %74
  %76 = or disjoint i32 %75, %66
  br label %93

77:                                               ; preds = %52
  %78 = shl i32 %7, 30
  %79 = and i32 %78, 1073741824
  %80 = shl nuw nsw i32 %15, 24
  %81 = or disjoint i32 %80, %79
  %82 = shl nuw nsw i32 %58, 18
  %83 = or disjoint i32 %81, %82
  %84 = shl nuw nsw i32 %62, 12
  %85 = or disjoint i32 %83, %84
  %86 = shl nuw nsw i32 %66, 6
  %87 = or disjoint i32 %85, %86
  %88 = getelementptr inbounds i8, ptr %0, i64 5
  %89 = load i8, ptr %88, align 1
  %90 = and i8 %89, 63
  %91 = zext nneg i8 %90 to i32
  %92 = or disjoint i32 %87, %91
  br label %93

93:                                               ; preds = %5, %23, %67, %77, %36, %16
  %.0 = phi i32 [ %19, %16 ], [ %32, %23 ], [ %51, %36 ], [ %76, %67 ], [ %92, %77 ], [ %7, %5 ]
  %94 = icmp eq i32 %1, 2
  br i1 %94, label %95, label %104

95:                                               ; preds = %93
  switch i32 %.0, label %116 [
    i32 10, label %.sink.split
    i32 13, label %96
  ]

96:                                               ; preds = %95
  %97 = getelementptr inbounds i8, ptr %2, i64 -1
  %98 = icmp ugt ptr %97, %0
  br i1 %98, label %99, label %.sink.split

99:                                               ; preds = %96
  %100 = getelementptr inbounds i8, ptr %0, i64 1
  %101 = load i8, ptr %100, align 1
  %102 = icmp eq i8 %101, 10
  %103 = select i1 %102, i32 2, i32 1
  br label %.sink.split

104:                                              ; preds = %93
  switch i32 %.0, label %116 [
    i32 10, label %.sink.split
    i32 11, label %.sink.split
    i32 12, label %.sink.split
    i32 13, label %105
    i32 133, label %113
    i32 8232, label %115
    i32 8233, label %115
  ]

105:                                              ; preds = %104
  %106 = getelementptr inbounds i8, ptr %2, i64 -1
  %107 = icmp ugt ptr %106, %0
  br i1 %107, label %108, label %.sink.split

108:                                              ; preds = %105
  %109 = getelementptr inbounds i8, ptr %0, i64 1
  %110 = load i8, ptr %109, align 1
  %111 = icmp eq i8 %110, 10
  %112 = select i1 %111, i32 2, i32 1
  br label %.sink.split

113:                                              ; preds = %104
  %114 = select i1 %.not, i32 2, i32 1
  br label %.sink.split

115:                                              ; preds = %104, %104
  br label %.sink.split

.sink.split:                                      ; preds = %105, %108, %104, %104, %104, %96, %99, %95, %113, %115
  %.sink = phi i32 [ 3, %115 ], [ %114, %113 ], [ 1, %95 ], [ 1, %96 ], [ %103, %99 ], [ 1, %104 ], [ 1, %104 ], [ 1, %104 ], [ 1, %105 ], [ %112, %108 ]
  store i32 %.sink, ptr %3, align 4
  br label %116

116:                                              ; preds = %.sink.split, %104, %95
  %.044 = phi i32 [ 0, %95 ], [ 0, %104 ], [ 1, %.sink.split ]
  ret i32 %.044
}